; Function Attrs: mustprogress uwtable
define noundef zeroext i1 @_ZN6google8protobuf8internal12ExtensionSet15ParseMessageSetEPNS0_2io16CodedInputStreamEPKNS0_11MessageLiteEPNSt7__cxx1112basic_stringIcSt11char_traitsIcESaIcEEE(ptr nocapture noundef nonnull align 8 dereferenceable(24) %0, ptr noundef %1, ptr noundef %2, ptr noundef %3) local_unnamed_addr #8 align 2 personality ptr @__gxx_personality_v0 {
_ZN6google8protobuf2io17CodedOutputStreamC2EPNS1_20ZeroCopyOutputStreamE.exit:
  %4 = alloca %"class.google::protobuf::io::StringOutputStream", align 8
  %5 = alloca %"class.google::protobuf::io::CodedOutputStream", align 8
  %6 = alloca %"class.google::protobuf::internal::CodedOutputStreamFieldSkipper", align 8
  %7 = alloca %"class.google::protobuf::internal::GeneratedExtensionFinder", align 8
  call void @_ZN6google8protobuf2io18StringOutputStreamC1EPNSt7__cxx1112basic_stringIcSt11char_traitsIcESaIcEEE(ptr noundef nonnull align 8 dereferenceable(16) %4, ptr noundef %3)
  call void @_ZN6google8protobuf2io17CodedOutputStreamC2EPNS1_20ZeroCopyOutputStreamEb(ptr noundef nonnull align 8 dereferenceable(80) %5, ptr noundef nonnull %4, i1 noundef zeroext true)
  store ptr getelementptr inbounds inrange(-16, 40) (i8, ptr @_ZTVN6google8protobuf8internal29CodedOutputStreamFieldSkipperE, i64 16), ptr %6, align 8
  %8 = getelementptr inbounds i8, ptr %6, i64 8
  store ptr %5, ptr %8, align 8
  store ptr getelementptr inbounds inrange(-16, 24) (i8, ptr @_ZTVN6google8protobuf8internal24GeneratedExtensionFinderE, i64 16), ptr %7, align 8
  %9 = getelementptr inbounds i8, ptr %7, i64 8
  store ptr %2, ptr %9, align 8
  %10 = invoke noundef zeroext i1 @_ZN6google8protobuf8internal12ExtensionSet19ParseMessageSetLiteEPNS0_2io16CodedInputStreamEPNS1_15ExtensionFinderEPNS1_12FieldSkipperE(ptr noundef nonnull align 8 dereferenceable(24) %0, ptr noundef %1, ptr noundef nonnull %7, ptr noundef nonnull %6)
          to label %11 unwind label %12

11:                                               ; preds = %_ZN6google8protobuf2io17CodedOutputStreamC2EPNS1_20ZeroCopyOutputStreamE.exit
  call void @_ZN6google8protobuf2io17CodedOutputStreamD1Ev(ptr noundef nonnull align 8 dereferenceable(80) %5) #23
  ret i1 %10

12:                                               ; preds = %_ZN6google8protobuf2io17CodedOutputStreamC2EPNS1_20ZeroCopyOutputStreamE.exit
  %13 = landingpad { ptr, i32 }
          cleanup
  call void @_ZN6google8protobuf2io17CodedOutputStreamD1Ev(ptr noundef nonnull align 8 dereferenceable(80) %5) #23
  resume { ptr, i32 } %13
}